target datalayout = "e-m:e-p270:32:32-p271:32:32-p272:64:64-i64:64-i128:128-f80:128-n8:16:32:64-S128"
target triple = "x86_64-pc-linux-gnu"

%class.G1IHOPControl = type { ptr, double, i64, double, ptr }
%class.G1OldGenAllocationTracker = type { i64, i64, i64, i64, i64 }

; Function Attrs: mustprogress nounwind uwtable
define linkonce_odr hidden noundef i64 @_ZNK25G1OldGenAllocationTracker26last_period_old_gen_growthEv(ptr noundef nonnull align 8 dereferenceable(40) %0) #1 comdat align 2 {
  %2 = alloca ptr, align 8
  store ptr %0, ptr %2, align 8
  %3 = load ptr, ptr %2, align 8
  %4 = getelementptr inbounds %class.G1OldGenAllocationTracker, ptr %3, i32 0, i32 1
  %5 = load i64, ptr %4, align 8
  ret i64 %5
}

; Function Attrs: mustprogress nounwind uwtable
define hidden noundef double @_ZNK21G1AdaptiveIHOPControl39last_mutator_period_old_allocation_rateEv(ptr noundef nonnull align 8 dereferenceable(216) %0) #1 align 2 {
  %2 = alloca ptr, align 8
  store ptr %0, ptr %2, align 8
  %3 = load ptr, ptr %2, align 8
  %4 = getelementptr inbounds %class.G1IHOPControl, ptr %3, i32 0, i32 4
  %5 = load ptr, ptr %4, align 8
  %6 = call noundef i64 @_ZNK25G1OldGenAllocationTracker26last_period_old_gen_growthEv(ptr noundef nonnull align 8 dereferenceable(40) %5)
  %7 = uitofp i64 %6 to double
  %8 = getelementptr inbounds %class.G1IHOPControl, ptr %3, i32 0, i32 3
  %9 = load double, ptr %8, align 8
  %10 = fdiv double %7, %9
  ret double %10
}