; Function Attrs: mustprogress nofree norecurse nosync nounwind willreturn memory(read, inaccessiblemem: none) uwtable
define hidden noundef double @_ZNK21G1AdaptiveIHOPControl39last_mutator_period_old_allocation_rateEv(ptr nocapture noundef nonnull readonly align 8 dereferenceable(216) %0) local_unnamed_addr #4 align 2 {
  %2 = getelementptr inbounds i8, ptr %0, i64 32
  %3 = load ptr, ptr %2, align 8
  %4 = getelementptr inbounds i8, ptr %3, i64 8
  %5 = load i64, ptr %4, align 8
  %6 = uitofp i64 %5 to double
  %7 = getelementptr inbounds i8, ptr %0, i64 24
  %8 = load double, ptr %7, align 8
  %9 = fdiv double %6, %8
  ret double %9
}